target datalayout = "e-m:e-p270:32:32-p271:32:32-p272:64:64-i64:64-i128:128-f80:128-n8:16:32:64-S128"
target triple = "x86_64-pc-linux-gnu"

%struct.exr_attr_string_vector_t = type { i32, i32, ptr }
%struct.exr_attr_string_t = type { i32, i32, ptr }
%struct._priv_exr_context_t = type { i8, i8, i8, i8, i8, i8, i8, i8, %struct.exr_attr_string_t, %struct.exr_attr_string_t, ptr, ptr, ptr, ptr, ptr, ptr, ptr, ptr, i32, i32, i32, i32, i32, float, ptr, ptr, ptr, i64, ptr, ptr, i64, i32, i32, i32, i32, %struct._priv_exr_part_t, ptr, ptr, %struct.exr_attribute_list, %union.pthread_mutex_t, i8, i8, [2 x i8], i32 }
%struct._priv_exr_part_t = type { i32, i32, %struct.exr_attribute_list, ptr, ptr, ptr, ptr, ptr, ptr, ptr, ptr, ptr, ptr, ptr, ptr, ptr, ptr, %struct.exr_attr_box2i_t, %struct.exr_attr_box2i_t, i32, i32, i32, float, i32, i32, ptr, ptr, ptr, ptr, i64, i16, i16, i32, i64, i64 }
%struct.exr_attr_box2i_t = type { %struct.exr_attr_v2i_t, %struct.exr_attr_v2i_t }
%struct.exr_attr_v2i_t = type { i32, i32 }
%struct.exr_attribute_list = type { i32, i32, ptr, ptr }
%union.pthread_mutex_t = type { %struct.__pthread_mutex_s }
%struct.__pthread_mutex_s = type { i32, i32, i32, i32, i32, i16, i16, %struct.__pthread_internal_list }
%struct.__pthread_internal_list = type { ptr, ptr }

@.str.3 = private unnamed_addr constant [52 x i8] c"Invalid index (%d of %d) initializing string vector\00", align 1
@.str.4 = private unnamed_addr constant [65 x i8] c"Invalid reference to string vector object to initialize index %d\00", align 1

; Function Attrs: nounwind uwtable
define hidden i32 @exr_attr_string_vector_init_entry(ptr noundef %0, ptr noundef %1, i32 noundef %2, i32 noundef %3) #0 {
  %5 = alloca i32, align 4
  %6 = alloca ptr, align 8
  %7 = alloca ptr, align 8
  %8 = alloca i32, align 4
  %9 = alloca i32, align 4
  store ptr %0, ptr %6, align 8, !tbaa !3
  store ptr %1, ptr %7, align 8, !tbaa !8
  store i32 %2, ptr %8, align 4, !tbaa !9
  store i32 %3, ptr %9, align 4, !tbaa !9
  %10 = load ptr, ptr %6, align 8, !tbaa !3
  %11 = icmp ne ptr %10, null
  br i1 %11, label %13, label %12

12:                                               ; preds = %4
  store i32 2, ptr %5, align 4
  br label %54

13:                                               ; preds = %4
  %14 = load ptr, ptr %7, align 8, !tbaa !8
  %15 = icmp ne ptr %14, null
  br i1 %15, label %16, label %47

16:                                               ; preds = %13
  %17 = load i32, ptr %8, align 4, !tbaa !9
  %18 = icmp slt i32 %17, 0
  br i1 %18, label %25, label %19

19:                                               ; preds = %16
  %20 = load i32, ptr %8, align 4, !tbaa !9
  %21 = load ptr, ptr %7, align 8, !tbaa !8
  %22 = getelementptr inbounds nuw %struct.exr_attr_string_vector_t, ptr %21, i32 0, i32 0
  %23 = load i32, ptr %22, align 8, !tbaa !33
  %24 = icmp sge i32 %20, %23
  br i1 %24, label %25, label %35

25:                                               ; preds = %19, %16
  %26 = load ptr, ptr %6, align 8, !tbaa !3
  %27 = getelementptr inbounds nuw %struct._priv_exr_context_t, ptr %26, i32 0, i32 14
  %28 = load ptr, ptr %27, align 8, !tbaa !27
  %29 = load ptr, ptr %6, align 8, !tbaa !3
  %30 = load i32, ptr %8, align 4, !tbaa !9
  %31 = load ptr, ptr %7, align 8, !tbaa !8
  %32 = getelementptr inbounds nuw %struct.exr_attr_string_vector_t, ptr %31, i32 0, i32 0
  %33 = load i32, ptr %32, align 8, !tbaa !33
  %34 = call i32 (ptr, i32, ptr, ...) %28(ptr noundef %29, i32 noundef 3, ptr noundef @.str.3, i32 noundef %30, i32 noundef %33)
  store i32 %34, ptr %5, align 4
  br label %54

35:                                               ; preds = %19
  %36 = load ptr, ptr %6, align 8, !tbaa !3
  %37 = load ptr, ptr %7, align 8, !tbaa !8
  %38 = getelementptr inbounds nuw %struct.exr_attr_string_vector_t, ptr %37, i32 0, i32 2
  %39 = load ptr, ptr %38, align 8, !tbaa !30
  %40 = ptrtoint ptr %39 to i64
  %41 = inttoptr i64 %40 to ptr
  %42 = load i32, ptr %8, align 4, !tbaa !9
  %43 = sext i32 %42 to i64
  %44 = getelementptr inbounds %struct.exr_attr_string_t, ptr %41, i64 %43
  %45 = load i32, ptr %9, align 4, !tbaa !9
  %46 = call i32 @exr_attr_string_init(ptr noundef %36, ptr noundef %44, i32 noundef %45)
  store i32 %46, ptr %5, align 4
  br label %54

47:                                               ; preds = %13
  %48 = load ptr, ptr %6, align 8, !tbaa !3
  %49 = getelementptr inbounds nuw %struct._priv_exr_context_t, ptr %48, i32 0, i32 14
  %50 = load ptr, ptr %49, align 8, !tbaa !27
  %51 = load ptr, ptr %6, align 8, !tbaa !3
  %52 = load i32, ptr %8, align 4, !tbaa !9
  %53 = call i32 (ptr, i32, ptr, ...) %50(ptr noundef %51, i32 noundef 3, ptr noundef @.str.4, i32 noundef %52)
  store i32 %53, ptr %5, align 4
  br label %54

54:                                               ; preds = %47, %35, %25, %12
  %55 = load i32, ptr %5, align 4
  ret i32 %55
}