; Function Attrs: nounwind uwtable
define hidden i32 @exr_attr_string_vector_init_entry(ptr noundef %0, ptr noundef readonly %1, i32 noundef %2, i32 noundef %3) local_unnamed_addr #0 {
  %.not = icmp eq ptr %0, null
  br i1 %.not, label %22, label %5

5:                                                ; preds = %4
  %.not19 = icmp eq ptr %1, null
  br i1 %.not19, label %18, label %6

6:                                                ; preds = %5
  %7 = icmp sgt i32 %2, -1
  %.pre = load i32, ptr %1, align 8, !tbaa !27
  %.not20 = icmp slt i32 %2, %.pre
  %or.cond = select i1 %7, i1 %.not20, i1 false
  br i1 %or.cond, label %12, label %8

8:                                                ; preds = %6
  %9 = getelementptr inbounds nuw i8, ptr %0, i64 72
  %10 = load ptr, ptr %9, align 8, !tbaa !22
  %11 = tail call i32 (ptr, i32, ptr, ...) %10(ptr noundef nonnull %0, i32 noundef 3, ptr noundef nonnull @.str.3, i32 noundef %2, i32 noundef %.pre) #5
  br label %22

12:                                               ; preds = %6
  %13 = getelementptr inbounds nuw i8, ptr %1, i64 8
  %14 = load ptr, ptr %13, align 8, !tbaa !24
  %15 = zext nneg i32 %2 to i64
  %16 = getelementptr inbounds nuw %struct.exr_attr_string_t, ptr %14, i64 %15
  %17 = tail call i32 @exr_attr_string_init(ptr noundef nonnull %0, ptr noundef %16, i32 noundef %3) #5
  br label %22

18:                                               ; preds = %5
  %19 = getelementptr inbounds nuw i8, ptr %0, i64 72
  %20 = load ptr, ptr %19, align 8, !tbaa !22
  %21 = tail call i32 (ptr, i32, ptr, ...) %20(ptr noundef nonnull %0, i32 noundef 3, ptr noundef nonnull @.str.4, i32 noundef %2) #5
  br label %22

22:                                               ; preds = %4, %18, %12, %8
  %.0 = phi i32 [ %11, %8 ], [ %17, %12 ], [ %21, %18 ], [ 2, %4 ]
  ret i32 %.0
}